
# Suppressions for Darwin 24.x / macOS 15.0 Sequoia

############################################

# I don't understand how chkstk works so no clue how to properly handle it

{
   OSX1500:chkstk
   Memcheck:Addr1
   fun:__chkstk_darwin_probe
   ...
}

# Related to DSC and other dyld memory access

{
   OSX1500:dyld_validMagic
   Memcheck:Cond
   fun:_ZN5dyld3L10validMagicERKNS_18SharedCacheOptionsEPK15DyldSharedCache
   ...
   fun:(below main)
}

{
   OSX1500:dyld_checksOSBinary
   Memcheck:Value8
   fun:_ZNK5dyld311GradedArchs14checksOSBinaryEv
   ...
   fun:_ZN5dyld4L7prepareERNS_4APIsEPKN5dyld313MachOAnalyzerE
}

{
   OSX1500:dyld_GradedArchs_grade
   Memcheck:Value8
   fun:_ZNK5dyld311GradedArchs5gradeEjjb
   ...
   fun:___ZN5dyld4L7prepareERNS_4APIsEPKN5dyld313MachOAnalyzerE_block_invoke
}

{
   OSX1500:dyld_FileRecord_stat64
   Memcheck:Param
   stat64(path)
   fun:stat$INODE64
   fun:_ZNK5dyld410FileRecord4statEv
   ...
   fun:_ZZN5dyld45startEPNS_10KernelArgsEPvS2_ENK3$_0clEv
   fun:(below main)
}

# New in 15.0

{
   OSX1500:dyld_CRC32cSW
   Memcheck:Value8
   fun:_ZN3lsl8CRC32cSW8checksumEjNSt3__14spanISt4byteLm18446744073709551615EEE
   ...
   fun:_ZZN5dyld45startEPNS_10KernelArgsEPvS2_ENK3$_0clEv
   fun:(below main)
}

{
   OSX1500:dyld_CRC32cSW_2
   Memcheck:Value8
   fun:_ZN3lsl8CRC32cSW8checksumEjNSt3__14spanISt4byteLm18446744073709551615EEE
   ...
   fun:_ZN5dyld4L7prepareERNS_4APIsEPKN5dyld313MachOAnalyzerE
}

{
   OSX1500:dyld_setUpPageInLinkingRegions_map_with_linking
   Memcheck:Param
   map_with_linking_np(link_info)
   fun:__map_with_linking_np
   fun:_ZN5dyld4L25setUpPageInLinkingRegionsERNS_12RuntimeStateEPKNS_6LoaderEmttbRKN5dyld35ArrayINS_18PageInLinkingRangeEEERKNS6_IPKvEE
   ...
   fun:_ZZN5dyld45startEPNS_10KernelArgsEPvS2_ENK3$_0clEv
   fun:(below main)
}

{
   OSX1500:libc_clock_port
   Memcheck:Cond
   obj:*
   fun:_init_clock_port
   fun:_libc_initializer
   fun:libSystem_initializer
   fun:___ZNK5dyld46Loader25findAndRunAllInitializersERNS_12RuntimeStateE_block_invoke
   ...
}

{
   OSX1500:libxpc_init
   Memcheck:Cond
   obj:*
   fun:_libxpc_initializer
   fun:libSystem_initializer
   fun:___ZNK5dyld46Loader25findAndRunAllInitializersERNS_12RuntimeStateE_block_invoke
   ...
}

{
   OSX:libsecinit_fetch_self_token
   Memcheck:Cond
   fun:_fetch_self_token
   ...
   fun:_libsecinit_initializer
   fun:libSystem_initializer
   fun:___ZNK5dyld46Loader25findAndRunAllInitializersERNS_12RuntimeStateE_block_invoke
   ...
}

{
   OSX1500:libtrace_create_debug_control_port
   Memcheck:Cond
   obj:*
   fun:_os_trace_create_debug_control_port
   fun:_libtrace_init
   fun:libSystem_initializer
   fun:___ZNK5dyld46Loader25findAndRunAllInitializersERNS_12RuntimeStateE_block_invoke
   ...
}

{
  OSX1500:dyld_GradedArchs_checksOSBinary
  Memcheck:Value8
  fun:_ZNK5dyld311GradedArchs14checksOSBinaryEv
  ...
  fun:_ZN5dyld412RuntimeState21loadInsertedLibrariesERN5dyld317OverflowSafeArrayIPNS_6LoaderELy4294967295EEEPKS3_
  ...
}

{
  OSX1500:dyld_MachOFile_compatibleSlice
  Memcheck:Value8
  fun:_ZN5dyld39MachOFile15compatibleSliceER11DiagnosticsRyS3_PKvmPKcN6mach_o8PlatformEbRKNS_11GradedArchsEb
  ...
  fun:_ZN5dyld412RuntimeState21loadInsertedLibrariesERN5dyld317OverflowSafeArrayIPNS_6LoaderELy4294967295EEEPKS3_
  ...
}

{
  OSX1500:dyld_mach_msg
  Memcheck:Param
  mach_msg2(msg)
  fun:mach_msg2_trap
  ...
  fun:_ZNK5dyld313MachOAnalyzer18forEachInitializerER11DiagnosticsRKNS0_15VMAddrConverterEU13block_pointerFvjEPKv
  ...
}

# Happens during a fork

{
   OSX1500:fork_xpc_cond
   Memcheck:Cond
   ...
   fun:bootstrap_look_up2
   ...
}

{
   OSX1500:fork_xpc_addr16
   Memcheck:Addr16
   ...
   fun:bootstrap_look_up2
   ...
}

{
   OSX1500:ns_initialize_platform_cond
   Memcheck:Cond
   ...
   fun:_NSInitializePlatform
   ...
}

{
   OSX1500:ns_initialize_platform_value8
   Memcheck:Value8
   obj:*
   ...
   fun:_NSInitializePlatform
   ...
}

{
   OSX1500:ns_initialize_platform_param
   Memcheck:Param
   open(filename)
   obj:*
   obj:*
   ...
   fun:_NSInitializePlatform
   ...
}

# Unclear, most likely because of fork

{
   OSX1500:notify_register_check
   Memcheck:Cond
   ...
   fun:notify_register_check
   ...
   fun:si_module_config_modules_for_category
   ...
}

{
   OSX1500:getpwuid_r_addr16
   Memcheck:Addr16
   obj:*
   ...
   fun:search_user_byuid
   fun:getpwuid_r
}

{
   OSX1500:getpwuid_r_value8
   Memcheck:Value8
   obj:*
   ...
   fun:search_user_byuid
   ...
}

{
   OSX1500:getpwuid_r_cond
   Memcheck:Cond
   ...
   fun:search_user_byuid
}

{
   OSX1500:getpwuid_r_cond_2
   Memcheck:Cond
   obj:*
   obj:*
   ...
   fun:ds_user_byuid
}

{
   OSX1500:getpwuid_r_value8_2
   Memcheck:Value8
   obj:*
   ...
   fun:ds_user_byuid
}

{
   OSX1500:firehose_param_mach_msg2_1
   Memcheck:Param
   mach_msg2(msgh_bits_and_send_size)
   obj:*
   obj:*
   obj:*
   obj:*
   fun:firehose_drain_notifications_once
   ...
   fun:___ZN5dyld44APIs33_dyld_register_func_for_add_imageEPFvPK11mach_headerlE_block_invoke
   ...
}

{
   OSX1500:firehose_param_mach_msg2_1
   Memcheck:Param
   mach_msg2(msgh_voucher_and_id)
   obj:*
   obj:*
   obj:*
   obj:*
   fun:firehose_drain_notifications_once
   ...
   fun:___ZN5dyld44APIs33_dyld_register_func_for_add_imageEPFvPK11mach_headerlE_block_invoke
   ...
}
