
# Suppressions for Darwin 21.x / macOS 12.0 Monterey

############################################

{
   OSX1200:chkstk
   Memcheck:Addr1
   fun:__chkstk_darwin_probe
   ...
   fun:(below main)
}

{
   OSX1200:dyld-immutable-addr1
   Memcheck:Addr1
   ...
   fun:_ZN5dyld44APIs25_dyld_is_memory_immutableEPKvm
   ...
}

{
   OSX1200:dyld-immutable-addr4
   Memcheck:Addr4
   ...
   fun:_ZN5dyld44APIs25_dyld_is_memory_immutableEPKvm
   ...
}

{
   OSX1200:dyld-immutable-addr8
   Memcheck:Addr8
   ...
   fun:_ZN5dyld44APIs25_dyld_is_memory_immutableEPKvm
   ...
}

{
   OSX1200:dyld-immutable-addr16
   Memcheck:Addr16
   ...
   fun:_ZN5dyld44APIs25_dyld_is_memory_immutableEPKvm
   ...
}

{
   OSX1200:dyld-immutable-cond
   Memcheck:Cond
   ...
   fun:_ZN5dyld44APIs25_dyld_is_memory_immutableEPKvm
   ...
}

{
   OSX1200:dyld-immutable-value8
   Memcheck:Value8
   ...
   fun:_ZN5dyld44APIs25_dyld_is_memory_immutableEPKvm
   ...
}

{
   OSX1200:dyld-prepare-addr1
   Memcheck:Addr1
   ...
   fun:_ZN5dyld4L7prepareERNS_4APIsEPKN5dyld313MachOAnalyzerE
   ...
}

{
   OSX1200:dyld-prepare-addr4
   Memcheck:Addr4
   ...
   fun:_ZN5dyld4L7prepareERNS_4APIsEPKN5dyld313MachOAnalyzerE
   ...
}

{
   OSX1200:dyld-prepare-addr8
   Memcheck:Addr8
   ...
   fun:_ZN5dyld4L7prepareERNS_4APIsEPKN5dyld313MachOAnalyzerE
   ...
}

{
   OSX1200:dyld-prepare-addr16
   Memcheck:Addr16
   ...
   fun:_ZN5dyld4L7prepareERNS_4APIsEPKN5dyld313MachOAnalyzerE
   ...
}

{
   OSX1200:dyld-prepare-cond
   Memcheck:Cond
   ...
   fun:_ZN5dyld4L7prepareERNS_4APIsEPKN5dyld313MachOAnalyzerE
   ...
}

{
   OSX1200:dyld-prepare-value8
   Memcheck:Value8
   ...
   fun:_ZN5dyld4L7prepareERNS_4APIsEPKN5dyld313MachOAnalyzerE
   ...
}

{
   OSX1200:dyld-cache-loader-addr1
   Memcheck:Addr1
   ...
   fun:_ZN5dyld46Loader19makeDyldCacheLoaderER11DiagnosticsRNS_12RuntimeStateEPKcRKNS0_11LoadOptionsEj
   ...
}

{
   OSX1200:dyld-cache-loader-addr4
   Memcheck:Addr4
   ...
   fun:_ZN5dyld46Loader19makeDyldCacheLoaderER11DiagnosticsRNS_12RuntimeStateEPKcRKNS0_11LoadOptionsEj
   ...
}

{
   OSX1200:dyld-cache-loader-addr8
   Memcheck:Addr8
   ...
   fun:_ZN5dyld46Loader19makeDyldCacheLoaderER11DiagnosticsRNS_12RuntimeStateEPKcRKNS0_11LoadOptionsEj
   ...
}

{
   OSX1200:dyld-cache-loader-addr16
   Memcheck:Addr16
   ...
   fun:_ZN5dyld46Loader19makeDyldCacheLoaderER11DiagnosticsRNS_12RuntimeStateEPKcRKNS0_11LoadOptionsEj
   ...
}

{
   OSX1200:dyld-cache-loader-cond
   Memcheck:Cond
   ...
   fun:_ZN5dyld46Loader19makeDyldCacheLoaderER11DiagnosticsRNS_12RuntimeStateEPKcRKNS0_11LoadOptionsEj
   ...
}

{
   OSX1200:dyld-cache-loader-value8
   Memcheck:Value8
   ...
   fun:_ZN5dyld46Loader19makeDyldCacheLoaderER11DiagnosticsRNS_12RuntimeStateEPKcRKNS0_11LoadOptionsEj
   ...
}

{
   OSX1200:dyld-runtime-state-addr1
   Memcheck:Addr1
   ...
   fun:_ZN5dyld412RuntimeState19withLoadersReadLockEU13block_pointerFvvE
   ...
}

{
   OSX1200:dyld-runtime-state-addr4
   Memcheck:Addr4
   ...
   fun:_ZN5dyld412RuntimeState19withLoadersReadLockEU13block_pointerFvvE
   ...
}

{
   OSX1200:dyld-runtime-state-addr8
   Memcheck:Addr8
   ...
   fun:_ZN5dyld412RuntimeState19withLoadersReadLockEU13block_pointerFvvE
   ...
}

{
   OSX1200:dyld-runtime-state-addr16
   Memcheck:Addr16
   ...
   fun:_ZN5dyld412RuntimeState19withLoadersReadLockEU13block_pointerFvvE
   ...
}

{
   OSX1200:dyld-runtime-state-cond
   Memcheck:Cond
   ...
   fun:_ZN5dyld412RuntimeState19withLoadersReadLockEU13block_pointerFvvE
   ...
}

{
   OSX1200:dyld-runtime-state-value8
   Memcheck:Value8
   ...
   fun:_ZN5dyld412RuntimeState19withLoadersReadLockEU13block_pointerFvvE
   ...
}

{
   OSX1200:dyld-run-inits-addr1
   Memcheck:Addr1
   ...
   fun:_ZN5dyld44APIs25runAllInitializersForMainEv
   ...
}

{
   OSX1200:dyld-run-inits-addr4
   Memcheck:Addr4
   ...
   fun:_ZN5dyld44APIs25runAllInitializersForMainEv
   ...
}

{
   OSX1200:dyld-run-inits-addr8
   Memcheck:Addr8
   ...
   fun:_ZN5dyld44APIs25runAllInitializersForMainEv
   ...
}

{
   OSX1200:dyld-run-inits-addr16
   Memcheck:Addr16
   ...
   fun:_ZN5dyld44APIs25runAllInitializersForMainEv
   ...
}

{
   OSX1200:dyld-run-inits-cond
   Memcheck:Cond
   ...
   fun:_ZN5dyld44APIs25runAllInitializersForMainEv
   ...
}

{
   OSX1200:dyld-run-inits-value8
   Memcheck:Value8
   ...
   fun:_ZN5dyld44APIs25runAllInitializersForMainEv
   ...
}
